target datalayout = "e-m:e-p270:32:32-p271:32:32-p272:64:64-i64:64-i128:128-f80:128-n8:16:32:64-S128"
target triple = "x86_64-pc-linux-gnu"

%"class.metaspace::VirtualSpaceNode" = type { ptr, %class.ReservedSpace, i8, ptr, i64, i64, %"class.metaspace::CommitMask", %"class.metaspace::RootChunkAreaLUT", ptr, ptr, ptr }
%class.ReservedSpace = type <{ ptr, i64, i64, i64, i64, i8, [3 x i8], i32, i8, [7 x i8] }>
%"class.metaspace::CommitMask" = type { %class.CHeapBitMap.base, ptr, i64, i64 }
%class.CHeapBitMap.base = type <{ %class.GrowableBitMap, i8 }>
%class.GrowableBitMap = type { %class.BitMap }
%class.BitMap = type { ptr, i64 }
%"class.metaspace::RootChunkAreaLUT" = type { ptr, i32, ptr }
%"class.metaspace::RootChunkArea" = type { ptr, ptr }
%"class.metaspace::Metachunk" = type { ptr, i64, i64, i8, i8, ptr, ptr, ptr, ptr, ptr }

@_ZN9metaspace13InternalStats20_num_chunks_enlargedE = external global i64, align 8

; Function Attrs: mustprogress nounwind uwtable
define linkonce_odr hidden noundef ptr @_ZNK9metaspace16RootChunkAreaLUT4baseEv(ptr noundef nonnull align 8 dereferenceable(24) %0) #1 comdat align 2 {
  %2 = alloca ptr, align 8
  store ptr %0, ptr %2, align 8
  %3 = load ptr, ptr %2, align 8
  %4 = getelementptr inbounds %"class.metaspace::RootChunkAreaLUT", ptr %3, i32 0, i32 0
  %5 = load ptr, ptr %4, align 8
  ret ptr %5
}

; Function Attrs: mustprogress nounwind uwtable
define linkonce_odr hidden noundef i32 @_ZNK9metaspace16RootChunkAreaLUT16index_by_addressEPKP12MetaWordImpl(ptr noundef nonnull align 8 dereferenceable(24) %0, ptr noundef %1) #1 comdat align 2 {
  %3 = alloca ptr, align 8
  %4 = alloca ptr, align 8
  %5 = alloca i32, align 4
  store ptr %0, ptr %3, align 8
  store ptr %1, ptr %4, align 8
  %6 = load ptr, ptr %3, align 8
  %7 = load ptr, ptr %4, align 8
  %8 = call noundef ptr @_ZNK9metaspace16RootChunkAreaLUT4baseEv(ptr noundef nonnull align 8 dereferenceable(24) %6)
  %9 = ptrtoint ptr %7 to i64
  %10 = ptrtoint ptr %8 to i64
  %11 = sub i64 %9, %10
  %12 = sdiv exact i64 %11, 8
  %13 = udiv i64 %12, 2097152
  %14 = trunc i64 %13 to i32
  store i32 %14, ptr %5, align 4
  %15 = load i32, ptr %5, align 4
  ret i32 %15
}

; Function Attrs: mustprogress nounwind uwtable
define linkonce_odr hidden void @_ZN9metaspace13InternalStats23inc_num_chunks_enlargedEv() #1 comdat align 2 {
  %1 = load i64, ptr @_ZN9metaspace13InternalStats20_num_chunks_enlargedE, align 8
  %2 = add i64 %1, 1
  store i64 %2, ptr @_ZN9metaspace13InternalStats20_num_chunks_enlargedE, align 8
  ret void
}

; Function Attrs: mustprogress nounwind uwtable
define linkonce_odr hidden noundef ptr @_ZNK9metaspace16RootChunkAreaLUT19get_area_by_addressEPKP12MetaWordImpl(ptr noundef nonnull align 8 dereferenceable(24) %0, ptr noundef %1) #1 comdat align 2 {
  %3 = alloca ptr, align 8
  %4 = alloca ptr, align 8
  %5 = alloca i32, align 4
  %6 = alloca ptr, align 8
  store ptr %0, ptr %3, align 8
  store ptr %1, ptr %4, align 8
  %7 = load ptr, ptr %3, align 8
  %8 = load ptr, ptr %4, align 8
  %9 = call noundef i32 @_ZNK9metaspace16RootChunkAreaLUT16index_by_addressEPKP12MetaWordImpl(ptr noundef nonnull align 8 dereferenceable(24) %7, ptr noundef %8)
  store i32 %9, ptr %5, align 4
  %10 = getelementptr inbounds %"class.metaspace::RootChunkAreaLUT", ptr %7, i32 0, i32 2
  %11 = load ptr, ptr %10, align 8
  %12 = load i32, ptr %5, align 4
  %13 = sext i32 %12 to i64
  %14 = getelementptr inbounds %"class.metaspace::RootChunkArea", ptr %11, i64 %13
  store ptr %14, ptr %6, align 8
  %15 = getelementptr inbounds %"class.metaspace::RootChunkAreaLUT", ptr %7, i32 0, i32 2
  %16 = load ptr, ptr %15, align 8
  %17 = load i32, ptr %5, align 4
  %18 = sext i32 %17 to i64
  %19 = getelementptr inbounds %"class.metaspace::RootChunkArea", ptr %16, i64 %18
  ret ptr %19
}

; Function Attrs: mustprogress nounwind uwtable
define linkonce_odr hidden noundef ptr @_ZNK9metaspace9Metachunk4baseEv(ptr noundef nonnull align 8 dereferenceable(72) %0) #1 comdat align 2 {
  %2 = alloca ptr, align 8
  store ptr %0, ptr %2, align 8
  %3 = load ptr, ptr %2, align 8
  %4 = getelementptr inbounds %"class.metaspace::Metachunk", ptr %3, i32 0, i32 0
  %5 = load ptr, ptr %4, align 8
  ret ptr %5
}

; Function Attrs: mustprogress nounwind uwtable
define hidden noundef zeroext i1 @_ZN9metaspace16VirtualSpaceNode21attempt_enlarge_chunkEPNS_9MetachunkEPNS_19FreeChunkListVectorE(ptr noundef nonnull align 8 dereferenceable(192) %0, ptr noundef %1, ptr noundef %2) #1 align 2 {
  %4 = alloca ptr, align 8
  %5 = alloca ptr, align 8
  %6 = alloca ptr, align 8
  %7 = alloca ptr, align 8
  %8 = alloca i8, align 1
  store ptr %0, ptr %4, align 8
  store ptr %1, ptr %5, align 8
  store ptr %2, ptr %6, align 8
  %9 = load ptr, ptr %4, align 8
  %10 = getelementptr inbounds %"class.metaspace::VirtualSpaceNode", ptr %9, i32 0, i32 7
  %11 = load ptr, ptr %5, align 8
  %12 = call noundef ptr @_ZNK9metaspace9Metachunk4baseEv(ptr noundef nonnull align 8 dereferenceable(72) %11)
  %13 = call noundef ptr @_ZNK9metaspace16RootChunkAreaLUT19get_area_by_addressEPKP12MetaWordImpl(ptr noundef nonnull align 8 dereferenceable(24) %10, ptr noundef %12)
  store ptr %13, ptr %7, align 8
  %14 = load ptr, ptr %7, align 8
  %15 = load ptr, ptr %5, align 8
  %16 = load ptr, ptr %6, align 8
  %17 = call noundef zeroext i1 @_ZN9metaspace13RootChunkArea21attempt_enlarge_chunkEPNS_9MetachunkEPNS_19FreeChunkListVectorE(ptr noundef nonnull align 8 dereferenceable(16) %14, ptr noundef %15, ptr noundef %16)
  %18 = zext i1 %17 to i8
  store i8 %18, ptr %8, align 1
  %19 = load i8, ptr %8, align 1
  %20 = trunc i8 %19 to i1
  br i1 %20, label %21, label %22

21:                                               ; preds = %3
  call void @_ZN9metaspace13InternalStats23inc_num_chunks_enlargedEv()
  br label %22

22:                                               ; preds = %21, %3
  %23 = load i8, ptr %8, align 1
  %24 = trunc i8 %23 to i1
  ret i1 %24
}