; Function Attrs: mustprogress nounwind uwtable
define hidden noundef zeroext i1 @_ZN9metaspace16VirtualSpaceNode21attempt_enlarge_chunkEPNS_9MetachunkEPNS_19FreeChunkListVectorE(ptr nocapture noundef nonnull readonly align 8 dereferenceable(192) %0, ptr noundef %1, ptr noundef %2) local_unnamed_addr #0 align 2 {
  %4 = getelementptr inbounds i8, ptr %0, i64 144
  %5 = load ptr, ptr %1, align 8
  %6 = load ptr, ptr %4, align 8
  %7 = ptrtoint ptr %5 to i64
  %8 = ptrtoint ptr %6 to i64
  %9 = sub i64 %7, %8
  %10 = getelementptr inbounds i8, ptr %0, i64 160
  %11 = load ptr, ptr %10, align 8
  %12 = shl i64 %9, 8
  %13 = ashr i64 %12, 32
  %14 = getelementptr inbounds %"class.metaspace::RootChunkArea", ptr %11, i64 %13
  %15 = tail call noundef zeroext i1 @_ZN9metaspace13RootChunkArea21attempt_enlarge_chunkEPNS_9MetachunkEPNS_19FreeChunkListVectorE(ptr noundef nonnull align 8 dereferenceable(16) %14, ptr noundef nonnull %1, ptr noundef %2) #8
  br i1 %15, label %16, label %19

16:                                               ; preds = %3
  %17 = load i64, ptr @_ZN9metaspace13InternalStats20_num_chunks_enlargedE, align 8
  %18 = add i64 %17, 1
  store i64 %18, ptr @_ZN9metaspace13InternalStats20_num_chunks_enlargedE, align 8
  br label %19

19:                                               ; preds = %16, %3
  ret i1 %15
}